target datalayout = "e-m:e-p270:32:32-p271:32:32-p272:64:64-i64:64-i128:128-f80:128-n8:16:32:64-S128"
target triple = "x86_64-unknown-linux-gnu"

%class.anon = type { i8 }

@rgb_to_xyz = dso_local global [3 x [3 x double]] zeroinitializer, align 16
@xyz_whitepoint = dso_local global [3 x double] zeroinitializer, align 16

; Function Attrs: mustprogress nounwind uwtable
define internal noundef double @"_ZZ7cie_labPdENK3$_0clEd"(ptr noundef nonnull align 1 dereferenceable(1) %this, double noundef %t) #4 align 2 {
entry:
  %retval = alloca double, align 8
  %this.addr = alloca ptr, align 8
  %t.addr = alloca double, align 8
  %delta = alloca double, align 8
  store ptr %this, ptr %this.addr, align 8
  store double %t, ptr %t.addr, align 8
  store double 0x3FCA7B9611A7B961, ptr %delta, align 8
  %0 = load double, ptr %t.addr, align 8
  %1 = load double, ptr %delta, align 8
  %2 = load double, ptr %delta, align 8
  %mul = fmul double %1, %2
  %3 = load double, ptr %delta, align 8
  %mul2 = fmul double %mul, %3
  %cmp = fcmp ogt double %0, %mul2
  br i1 %cmp, label %if.then, label %if.else

if.then:                                          ; preds = %entry
  %4 = load double, ptr %t.addr, align 8
  %call = call double @cbrt(double noundef %4) #18
  store double %call, ptr %retval, align 8
  br label %return

if.else:                                          ; preds = %entry
  %5 = load double, ptr %t.addr, align 8
  %6 = load double, ptr %delta, align 8
  %7 = load double, ptr %delta, align 8
  %mul3 = fmul double %6, %7
  %mul4 = fmul double %mul3, 3.000000e+00
  %div = fdiv double %5, %mul4
  %add = fadd double %div, 0x3FC1A7B9611A7B96
  store double %add, ptr %retval, align 8
  br label %return

return:                                           ; preds = %if.else, %if.then
  %8 = load double, ptr %retval, align 8
  ret double %8
}

; Function Attrs: mustprogress uwtable
define dso_local void @_Z7cie_labPd(ptr noundef %p) #6 {
entry:
  %p.addr = alloca ptr, align 8
  %X = alloca double, align 8
  %Y = alloca double, align 8
  %Z = alloca double, align 8
  %Xw = alloca double, align 8
  %Yw = alloca double, align 8
  %Zw = alloca double, align 8
  %j = alloca i32, align 4
  %f = alloca %class.anon, align 1
  store ptr %p, ptr %p.addr, align 8
  store double 0.000000e+00, ptr %X, align 8
  store double 0.000000e+00, ptr %Y, align 8
  store double 0.000000e+00, ptr %Z, align 8
  %0 = load double, ptr @xyz_whitepoint, align 16
  store double %0, ptr %Xw, align 8
  %1 = load double, ptr getelementptr inbounds ([3 x double], ptr @xyz_whitepoint, i64 0, i64 1), align 8
  store double %1, ptr %Yw, align 8
  %2 = load double, ptr getelementptr inbounds ([3 x double], ptr @xyz_whitepoint, i64 0, i64 2), align 16
  store double %2, ptr %Zw, align 8
  store i32 0, ptr %j, align 4
  br label %for.cond

for.cond:                                         ; preds = %for.inc, %entry
  %3 = load i32, ptr %j, align 4
  %cmp = icmp slt i32 %3, 3
  br i1 %cmp, label %for.body, label %for.end

for.body:                                         ; preds = %for.cond
  %4 = load ptr, ptr %p.addr, align 8
  %5 = load i32, ptr %j, align 4
  %idxprom = sext i32 %5 to i64
  %arrayidx = getelementptr inbounds double, ptr %4, i64 %idxprom
  %6 = load double, ptr %arrayidx, align 8
  %7 = load i32, ptr %j, align 4
  %idxprom1 = sext i32 %7 to i64
  %arrayidx2 = getelementptr inbounds [3 x double], ptr @rgb_to_xyz, i64 0, i64 %idxprom1
  %8 = load double, ptr %arrayidx2, align 8
  %mul = fmul double %6, %8
  %9 = load double, ptr %X, align 8
  %add = fadd double %9, %mul
  store double %add, ptr %X, align 8
  %10 = load ptr, ptr %p.addr, align 8
  %11 = load i32, ptr %j, align 4
  %idxprom3 = sext i32 %11 to i64
  %arrayidx4 = getelementptr inbounds double, ptr %10, i64 %idxprom3
  %12 = load double, ptr %arrayidx4, align 8
  %13 = load i32, ptr %j, align 4
  %idxprom5 = sext i32 %13 to i64
  %arrayidx6 = getelementptr inbounds [3 x double], ptr getelementptr inbounds ([3 x [3 x double]], ptr @rgb_to_xyz, i64 0, i64 1), i64 0, i64 %idxprom5
  %14 = load double, ptr %arrayidx6, align 8
  %mul7 = fmul double %12, %14
  %15 = load double, ptr %Y, align 8
  %add8 = fadd double %15, %mul7
  store double %add8, ptr %Y, align 8
  %16 = load ptr, ptr %p.addr, align 8
  %17 = load i32, ptr %j, align 4
  %idxprom9 = sext i32 %17 to i64
  %arrayidx10 = getelementptr inbounds double, ptr %16, i64 %idxprom9
  %18 = load double, ptr %arrayidx10, align 8
  %19 = load i32, ptr %j, align 4
  %idxprom11 = sext i32 %19 to i64
  %arrayidx12 = getelementptr inbounds [3 x double], ptr getelementptr inbounds ([3 x [3 x double]], ptr @rgb_to_xyz, i64 0, i64 2), i64 0, i64 %idxprom11
  %20 = load double, ptr %arrayidx12, align 8
  %mul13 = fmul double %18, %20
  %21 = load double, ptr %Z, align 8
  %add14 = fadd double %21, %mul13
  store double %add14, ptr %Z, align 8
  br label %for.inc

for.inc:                                          ; preds = %for.body
  %22 = load i32, ptr %j, align 4
  %inc = add nsw i32 %22, 1
  store i32 %inc, ptr %j, align 4
  br label %for.cond, !llvm.loop !15

for.end:                                          ; preds = %for.cond
  %23 = load double, ptr %Y, align 8
  %24 = load double, ptr %Yw, align 8
  %div = fdiv double %23, %24
  %call = call noundef double @"_ZZ7cie_labPdENK3$_0clEd"(ptr noundef nonnull align 1 dereferenceable(1) %f, double noundef %div)
  %mul15 = fmul double 1.160000e+02, %call
  %sub = fsub double %mul15, 1.600000e+01
  %25 = load ptr, ptr %p.addr, align 8
  %arrayidx16 = getelementptr inbounds double, ptr %25, i64 0
  store double %sub, ptr %arrayidx16, align 8
  %26 = load double, ptr %X, align 8
  %27 = load double, ptr %Xw, align 8
  %div17 = fdiv double %26, %27
  %call18 = call noundef double @"_ZZ7cie_labPdENK3$_0clEd"(ptr noundef nonnull align 1 dereferenceable(1) %f, double noundef %div17)
  %28 = load double, ptr %Y, align 8
  %29 = load double, ptr %Yw, align 8
  %div19 = fdiv double %28, %29
  %call20 = call noundef double @"_ZZ7cie_labPdENK3$_0clEd"(ptr noundef nonnull align 1 dereferenceable(1) %f, double noundef %div19)
  %sub21 = fsub double %call18, %call20
  %mul22 = fmul double 5.000000e+02, %sub21
  %30 = load ptr, ptr %p.addr, align 8
  %arrayidx23 = getelementptr inbounds double, ptr %30, i64 1
  store double %mul22, ptr %arrayidx23, align 8
  %31 = load double, ptr %Y, align 8
  %32 = load double, ptr %Yw, align 8
  %div24 = fdiv double %31, %32
  %call25 = call noundef double @"_ZZ7cie_labPdENK3$_0clEd"(ptr noundef nonnull align 1 dereferenceable(1) %f, double noundef %div24)
  %33 = load double, ptr %Z, align 8
  %34 = load double, ptr %Zw, align 8
  %div26 = fdiv double %33, %34
  %call27 = call noundef double @"_ZZ7cie_labPdENK3$_0clEd"(ptr noundef nonnull align 1 dereferenceable(1) %f, double noundef %div26)
  %sub28 = fsub double %call25, %call27
  %mul29 = fmul double 2.000000e+02, %sub28
  %35 = load ptr, ptr %p.addr, align 8
  %arrayidx30 = getelementptr inbounds double, ptr %35, i64 2
  store double %mul29, ptr %arrayidx30, align 8
  ret void
}