; Function Attrs: mustprogress nofree nosync nounwind memory(read, argmem: readwrite, inaccessiblemem: none) uwtable
define dso_local void @_Z7cie_labPd(ptr nocapture noundef %p) local_unnamed_addr #8 {
entry:
  %0 = load double, ptr @xyz_whitepoint, align 16
  %1 = load double, ptr getelementptr inbounds ([3 x double], ptr @xyz_whitepoint, i64 0, i64 1), align 8
  %2 = load double, ptr getelementptr inbounds ([3 x double], ptr @xyz_whitepoint, i64 0, i64 2), align 16
  br label %for.body

for.body:                                         ; preds = %entry, %for.body
  %indvars.iv = phi i64 [ 0, %entry ], [ %indvars.iv.next, %for.body ]
  %X.058 = phi double [ 0.000000e+00, %entry ], [ %add, %for.body ]
  %Y.057 = phi double [ 0.000000e+00, %entry ], [ %add8, %for.body ]
  %Z.056 = phi double [ 0.000000e+00, %entry ], [ %add14, %for.body ]
  %arrayidx = getelementptr inbounds double, ptr %p, i64 %indvars.iv
  %3 = load double, ptr %arrayidx, align 8
  %arrayidx2 = getelementptr inbounds [3 x double], ptr @rgb_to_xyz, i64 0, i64 %indvars.iv
  %4 = load double, ptr %arrayidx2, align 8
  %mul = fmul double %3, %4
  %add = fadd double %X.058, %mul
  %arrayidx6 = getelementptr inbounds [3 x [3 x double]], ptr @rgb_to_xyz, i64 0, i64 1, i64 %indvars.iv
  %5 = load double, ptr %arrayidx6, align 8
  %mul7 = fmul double %3, %5
  %add8 = fadd double %Y.057, %mul7
  %arrayidx12 = getelementptr inbounds [3 x [3 x double]], ptr @rgb_to_xyz, i64 0, i64 2, i64 %indvars.iv
  %6 = load double, ptr %arrayidx12, align 8
  %mul13 = fmul double %3, %6
  %add14 = fadd double %Z.056, %mul13
  %indvars.iv.next = add nuw nsw i64 %indvars.iv, 1
  %exitcond.not = icmp eq i64 %indvars.iv.next, 3
  br i1 %exitcond.not, label %for.end, label %for.body, !llvm.loop !15

for.end:                                          ; preds = %for.body
  %div = fdiv double %add8, %1
  %cmp.i = fcmp ogt double %div, 0x3F822354D28F7CD6
  br i1 %cmp.i, label %if.then.i, label %if.else.i

if.then.i:                                        ; preds = %for.end
  %call.i = tail call double @cbrt(double noundef %div) #30
  br label %"_ZZ7cie_labPdENK3$_0clEd.exit"

if.else.i:                                        ; preds = %for.end
  %div.i = fdiv double %div, 0x3FC07004DED20922
  %add.i = fadd double %div.i, 0x3FC1A7B9611A7B96
  br label %"_ZZ7cie_labPdENK3$_0clEd.exit"

"_ZZ7cie_labPdENK3$_0clEd.exit":                  ; preds = %if.then.i, %if.else.i
  %retval.0.i = phi double [ %call.i, %if.then.i ], [ %add.i, %if.else.i ]
  %mul15 = fmul double %retval.0.i, 1.160000e+02
  %sub = fadd double %mul15, -1.600000e+01
  store double %sub, ptr %p, align 8
  %div17 = fdiv double %add, %0
  %cmp.i20 = fcmp ogt double %div17, 0x3F822354D28F7CD6
  br i1 %cmp.i20, label %if.then.i25, label %if.else.i21

if.then.i25:                                      ; preds = %"_ZZ7cie_labPdENK3$_0clEd.exit"
  %call.i26 = tail call double @cbrt(double noundef %div17) #30
  br label %"_ZZ7cie_labPdENK3$_0clEd.exit27"

if.else.i21:                                      ; preds = %"_ZZ7cie_labPdENK3$_0clEd.exit"
  %div.i22 = fdiv double %div17, 0x3FC07004DED20922
  %add.i23 = fadd double %div.i22, 0x3FC1A7B9611A7B96
  br label %"_ZZ7cie_labPdENK3$_0clEd.exit27"

"_ZZ7cie_labPdENK3$_0clEd.exit27":                ; preds = %if.then.i25, %if.else.i21
  %retval.0.i24 = phi double [ %call.i26, %if.then.i25 ], [ %add.i23, %if.else.i21 ]
  br i1 %cmp.i, label %if.then.i41, label %if.else.i37

if.then.i41:                                      ; preds = %"_ZZ7cie_labPdENK3$_0clEd.exit27"
  %call.i34 = tail call double @cbrt(double noundef %div) #30
  br label %"_ZZ7cie_labPdENK3$_0clEd.exit43"

if.else.i37:                                      ; preds = %"_ZZ7cie_labPdENK3$_0clEd.exit27"
  %div.i30 = fdiv double %div, 0x3FC07004DED20922
  %add.i31 = fadd double %div.i30, 0x3FC1A7B9611A7B96
  br label %"_ZZ7cie_labPdENK3$_0clEd.exit43"

"_ZZ7cie_labPdENK3$_0clEd.exit43":                ; preds = %if.then.i41, %if.else.i37
  %retval.0.i40 = phi double [ %call.i34, %if.then.i41 ], [ %add.i31, %if.else.i37 ]
  %mul22.sink.in = fsub double %retval.0.i24, %retval.0.i40
  %mul22.sink = fmul double %mul22.sink.in, 5.000000e+02
  %7 = getelementptr inbounds i8, ptr %p, i64 8
  store double %mul22.sink, ptr %7, align 8
  %div26 = fdiv double %add14, %2
  %cmp.i44 = fcmp ogt double %div26, 0x3F822354D28F7CD6
  br i1 %cmp.i44, label %if.then.i49, label %if.else.i45

if.then.i49:                                      ; preds = %"_ZZ7cie_labPdENK3$_0clEd.exit43"
  %call.i50 = tail call double @cbrt(double noundef %div26) #30
  br label %"_ZZ7cie_labPdENK3$_0clEd.exit51"

if.else.i45:                                      ; preds = %"_ZZ7cie_labPdENK3$_0clEd.exit43"
  %div.i46 = fdiv double %div26, 0x3FC07004DED20922
  %add.i47 = fadd double %div.i46, 0x3FC1A7B9611A7B96
  br label %"_ZZ7cie_labPdENK3$_0clEd.exit51"

"_ZZ7cie_labPdENK3$_0clEd.exit51":                ; preds = %if.then.i49, %if.else.i45
  %retval.0.i48 = phi double [ %call.i50, %if.then.i49 ], [ %add.i47, %if.else.i45 ]
  %sub28 = fsub double %retval.0.i40, %retval.0.i48
  %mul29 = fmul double %sub28, 2.000000e+02
  %arrayidx30 = getelementptr inbounds i8, ptr %p, i64 16
  store double %mul29, ptr %arrayidx30, align 8
  ret void
}